target datalayout = "e-m:e-p270:32:32-p271:32:32-p272:64:64-i64:64-i128:128-f80:128-n8:16:32:64-S128"
target triple = "x86_64-pc-linux-gnu"

%struct.List = type { i32, i32, i32, ptr, [0 x %union.ListCell] }
%union.ListCell = type { ptr }
%struct.RangeTblEntry = type { i32, ptr, ptr, i32, i32, i8, i8, i32, i32, ptr, ptr, i8, i32, i32, ptr, ptr, ptr, ptr, ptr, i8, ptr, ptr, ptr, i32, i8, ptr, ptr, ptr, ptr, double, ptr, i8, i8, ptr }
%struct.Alias = type { i32, ptr, ptr }
%struct.String = type { i32, ptr }

@.str.1 = private unnamed_addr constant [17 x i8] c"parse_relation.c\00", align 1
@.str.45 = private unnamed_addr constant [2 x i8] c"*\00", align 1
@.str.46 = private unnamed_addr constant [42 x i8] c"invalid attnum %d for rangetable entry %s\00", align 1
@__func__.get_rte_attribute_name = private unnamed_addr constant [23 x i8] c"get_rte_attribute_name\00", align 1

; Function Attrs: inlinehint nounwind uwtable
define internal ptr @list_nth_cell(ptr noundef %0, i32 noundef %1) #6 {
  %3 = alloca ptr, align 8
  %4 = alloca i32, align 4
  store ptr %0, ptr %3, align 8
  store i32 %1, ptr %4, align 4
  %5 = load ptr, ptr %3, align 8
  %6 = getelementptr inbounds nuw %struct.List, ptr %5, i32 0, i32 3
  %7 = load ptr, ptr %6, align 8
  %8 = load i32, ptr %4, align 4
  %9 = sext i32 %8 to i64
  %10 = getelementptr inbounds %union.ListCell, ptr %7, i64 %9
  ret ptr %10
}

; Function Attrs: inlinehint nounwind uwtable
define internal ptr @list_nth(ptr noundef %0, i32 noundef %1) #6 {
  %3 = alloca ptr, align 8
  %4 = alloca i32, align 4
  store ptr %0, ptr %3, align 8
  store i32 %1, ptr %4, align 4
  %5 = load ptr, ptr %3, align 8
  %6 = load i32, ptr %4, align 4
  %7 = call ptr @list_nth_cell(ptr noundef %5, i32 noundef %6)
  %8 = load ptr, ptr %7, align 8
  ret ptr %8
}

; Function Attrs: inlinehint nounwind uwtable
define internal i32 @list_length(ptr noundef %0) #6 {
  %2 = alloca ptr, align 8
  store ptr %0, ptr %2, align 8
  %3 = load ptr, ptr %2, align 8
  %4 = icmp ne ptr %3, null
  br i1 %4, label %5, label %9

5:                                                ; preds = %1
  %6 = load ptr, ptr %2, align 8
  %7 = getelementptr inbounds nuw %struct.List, ptr %6, i32 0, i32 1
  %8 = load i32, ptr %7, align 4
  br label %10

9:                                                ; preds = %1
  br label %10

10:                                               ; preds = %9, %5
  %11 = phi i32 [ %8, %5 ], [ 0, %9 ]
  ret i32 %11
}

; Function Attrs: nounwind uwtable
define dso_local ptr @get_rte_attribute_name(ptr noundef %0, i16 noundef signext %1) #0 {
  %3 = alloca ptr, align 8
  %4 = alloca ptr, align 8
  %5 = alloca i16, align 2
  store ptr %0, ptr %4, align 8
  store i16 %1, ptr %5, align 2
  %6 = load i16, ptr %5, align 2
  %7 = sext i16 %6 to i32
  %8 = icmp eq i32 %7, 0
  br i1 %8, label %9, label %10

9:                                                ; preds = %2
  store ptr @.str.45, ptr %3, align 8
  br label %95

10:                                               ; preds = %2
  %11 = load ptr, ptr %4, align 8
  %12 = getelementptr inbounds nuw %struct.RangeTblEntry, ptr %11, i32 0, i32 1
  %13 = load ptr, ptr %12, align 8
  %14 = icmp ne ptr %13, null
  br i1 %14, label %15, label %41

15:                                               ; preds = %10
  %16 = load i16, ptr %5, align 2
  %17 = sext i16 %16 to i32
  %18 = icmp sgt i32 %17, 0
  br i1 %18, label %19, label %41

19:                                               ; preds = %15
  %20 = load i16, ptr %5, align 2
  %21 = sext i16 %20 to i32
  %22 = load ptr, ptr %4, align 8
  %23 = getelementptr inbounds nuw %struct.RangeTblEntry, ptr %22, i32 0, i32 1
  %24 = load ptr, ptr %23, align 8
  %25 = getelementptr inbounds nuw %struct.Alias, ptr %24, i32 0, i32 2
  %26 = load ptr, ptr %25, align 8
  %27 = call i32 @list_length(ptr noundef %26)
  %28 = icmp sle i32 %21, %27
  br i1 %28, label %29, label %41

29:                                               ; preds = %19
  %30 = load ptr, ptr %4, align 8
  %31 = getelementptr inbounds nuw %struct.RangeTblEntry, ptr %30, i32 0, i32 1
  %32 = load ptr, ptr %31, align 8
  %33 = getelementptr inbounds nuw %struct.Alias, ptr %32, i32 0, i32 2
  %34 = load ptr, ptr %33, align 8
  %35 = load i16, ptr %5, align 2
  %36 = sext i16 %35 to i32
  %37 = sub i32 %36, 1
  %38 = call ptr @list_nth(ptr noundef %34, i32 noundef %37)
  %39 = getelementptr inbounds nuw %struct.String, ptr %38, i32 0, i32 1
  %40 = load ptr, ptr %39, align 8
  store ptr %40, ptr %3, align 8
  br label %95

41:                                               ; preds = %19, %15, %10
  %42 = load ptr, ptr %4, align 8
  %43 = getelementptr inbounds nuw %struct.RangeTblEntry, ptr %42, i32 0, i32 3
  %44 = load i32, ptr %43, align 8
  %45 = icmp eq i32 %44, 0
  br i1 %45, label %46, label %52

46:                                               ; preds = %41
  %47 = load ptr, ptr %4, align 8
  %48 = getelementptr inbounds nuw %struct.RangeTblEntry, ptr %47, i32 0, i32 4
  %49 = load i32, ptr %48, align 4
  %50 = load i16, ptr %5, align 2
  %51 = call ptr @get_attname(i32 noundef %49, i16 noundef signext %50, i1 noundef zeroext false)
  store ptr %51, ptr %3, align 8
  br label %95

52:                                               ; preds = %41
  %53 = load i16, ptr %5, align 2
  %54 = sext i16 %53 to i32
  %55 = icmp sgt i32 %54, 0
  br i1 %55, label %56, label %78

56:                                               ; preds = %52
  %57 = load i16, ptr %5, align 2
  %58 = sext i16 %57 to i32
  %59 = load ptr, ptr %4, align 8
  %60 = getelementptr inbounds nuw %struct.RangeTblEntry, ptr %59, i32 0, i32 2
  %61 = load ptr, ptr %60, align 8
  %62 = getelementptr inbounds nuw %struct.Alias, ptr %61, i32 0, i32 2
  %63 = load ptr, ptr %62, align 8
  %64 = call i32 @list_length(ptr noundef %63)
  %65 = icmp sle i32 %58, %64
  br i1 %65, label %66, label %78

66:                                               ; preds = %56
  %67 = load ptr, ptr %4, align 8
  %68 = getelementptr inbounds nuw %struct.RangeTblEntry, ptr %67, i32 0, i32 2
  %69 = load ptr, ptr %68, align 8
  %70 = getelementptr inbounds nuw %struct.Alias, ptr %69, i32 0, i32 2
  %71 = load ptr, ptr %70, align 8
  %72 = load i16, ptr %5, align 2
  %73 = sext i16 %72 to i32
  %74 = sub i32 %73, 1
  %75 = call ptr @list_nth(ptr noundef %71, i32 noundef %74)
  %76 = getelementptr inbounds nuw %struct.String, ptr %75, i32 0, i32 1
  %77 = load ptr, ptr %76, align 8
  store ptr %77, ptr %3, align 8
  br label %95

78:                                               ; preds = %56, %52
  br label %79

79:                                               ; preds = %78
  br i1 true, label %80, label %82

80:                                               ; preds = %79
  %81 = call zeroext i1 @errstart_cold(i32 noundef 21, ptr noundef null) #9
  br i1 %81, label %84, label %93

82:                                               ; preds = %79
  %83 = call zeroext i1 @errstart(i32 noundef 21, ptr noundef null)
  br i1 %83, label %84, label %93

84:                                               ; preds = %82, %80
  %85 = load i16, ptr %5, align 2
  %86 = sext i16 %85 to i32
  %87 = load ptr, ptr %4, align 8
  %88 = getelementptr inbounds nuw %struct.RangeTblEntry, ptr %87, i32 0, i32 2
  %89 = load ptr, ptr %88, align 8
  %90 = getelementptr inbounds nuw %struct.Alias, ptr %89, i32 0, i32 1
  %91 = load ptr, ptr %90, align 8
  %92 = call i32 (ptr, ...) @errmsg_internal(ptr noundef @.str.46, i32 noundef %86, ptr noundef %91)
  call void @errfinish(ptr noundef @.str.1, i32 noundef 3387, ptr noundef @__func__.get_rte_attribute_name)
  br label %93

93:                                               ; preds = %84, %82, %80
  unreachable

94:                                               ; No predecessors!
  store ptr null, ptr %3, align 8
  br label %95

95:                                               ; preds = %94, %66, %46, %29, %9
  %96 = load ptr, ptr %3, align 8
  ret ptr %96
}