; Function Attrs: nounwind uwtable
define dso_local ptr @get_rte_attribute_name(ptr noundef readonly captures(none) %0, i16 noundef signext %1) local_unnamed_addr #0 {
  %3 = sext i16 %1 to i32
  %4 = icmp eq i16 %1, 0
  br i1 %4, label %58, label %5

5:                                                ; preds = %2
  %6 = getelementptr inbounds nuw i8, ptr %0, i64 8
  %7 = load ptr, ptr %6, align 8
  %8 = icmp ne ptr %7, null
  %9 = icmp sgt i16 %1, 0
  %or.cond = and i1 %9, %8
  br i1 %or.cond, label %10, label %25

10:                                               ; preds = %5
  %11 = getelementptr inbounds nuw i8, ptr %7, i64 16
  %12 = load ptr, ptr %11, align 8
  %.not.i = icmp eq ptr %12, null
  br i1 %.not.i, label %list_length.exit, label %13

13:                                               ; preds = %10
  %14 = getelementptr inbounds nuw i8, ptr %12, i64 4
  %15 = load i32, ptr %14, align 4
  br label %list_length.exit

list_length.exit:                                 ; preds = %10, %13
  %16 = phi i32 [ %15, %13 ], [ 0, %10 ]
  %.not = icmp slt i32 %16, %3
  br i1 %.not, label %25, label %17

17:                                               ; preds = %list_length.exit
  %18 = getelementptr i8, ptr %12, i64 16
  %.val22 = load ptr, ptr %18, align 8
  %19 = zext nneg i16 %1 to i64
  %20 = getelementptr %union.ListCell, ptr %.val22, i64 %19
  %21 = getelementptr i8, ptr %20, i64 -8
  %22 = load ptr, ptr %21, align 8
  %23 = getelementptr inbounds nuw i8, ptr %22, i64 8
  %24 = load ptr, ptr %23, align 8
  br label %58

25:                                               ; preds = %list_length.exit, %5
  %26 = getelementptr inbounds nuw i8, ptr %0, i64 24
  %27 = load i32, ptr %26, align 8
  %28 = icmp eq i32 %27, 0
  br i1 %28, label %29, label %33

29:                                               ; preds = %25
  %30 = getelementptr inbounds nuw i8, ptr %0, i64 28
  %31 = load i32, ptr %30, align 4
  %32 = tail call ptr @get_attname(i32 noundef %31, i16 noundef signext %1, i1 noundef zeroext false) #11
  br label %58

33:                                               ; preds = %25
  br i1 %9, label %34, label %51

34:                                               ; preds = %33
  %35 = getelementptr inbounds nuw i8, ptr %0, i64 16
  %36 = load ptr, ptr %35, align 8
  %37 = getelementptr inbounds nuw i8, ptr %36, i64 16
  %38 = load ptr, ptr %37, align 8
  %.not.i23 = icmp eq ptr %38, null
  br i1 %.not.i23, label %list_length.exit24, label %39

39:                                               ; preds = %34
  %40 = getelementptr inbounds nuw i8, ptr %38, i64 4
  %41 = load i32, ptr %40, align 4
  br label %list_length.exit24

list_length.exit24:                               ; preds = %34, %39
  %42 = phi i32 [ %41, %39 ], [ 0, %34 ]
  %.not21 = icmp slt i32 %42, %3
  br i1 %.not21, label %51, label %43

43:                                               ; preds = %list_length.exit24
  %44 = getelementptr i8, ptr %38, i64 16
  %.val = load ptr, ptr %44, align 8
  %45 = zext nneg i16 %1 to i64
  %46 = getelementptr %union.ListCell, ptr %.val, i64 %45
  %47 = getelementptr i8, ptr %46, i64 -8
  %48 = load ptr, ptr %47, align 8
  %49 = getelementptr inbounds nuw i8, ptr %48, i64 8
  %50 = load ptr, ptr %49, align 8
  br label %58

51:                                               ; preds = %list_length.exit24, %33
  %52 = tail call zeroext i1 @errstart_cold(i32 noundef 21, ptr noundef null) #13
  tail call void @llvm.assume(i1 %52)
  %53 = getelementptr inbounds nuw i8, ptr %0, i64 16
  %54 = load ptr, ptr %53, align 8
  %55 = getelementptr inbounds nuw i8, ptr %54, i64 8
  %56 = load ptr, ptr %55, align 8
  %57 = tail call i32 (ptr, ...) @errmsg_internal(ptr noundef nonnull @.str.46, i32 noundef %3, ptr noundef %56) #11
  tail call void @errfinish(ptr noundef nonnull @.str.1, i32 noundef 3387, ptr noundef nonnull @__func__.get_rte_attribute_name) #11
  unreachable

58:                                               ; preds = %2, %43, %29, %17
  %.0 = phi ptr [ %24, %17 ], [ %32, %29 ], [ %50, %43 ], [ @.str.45, %2 ]
  ret ptr %.0
}